; Function Attrs: nounwind uwtable
define range(i32 0, 2) i32 @EVP_RAND_generate(ptr noundef readonly captures(none) %0, ptr noundef %1, i64 noundef %2, i32 noundef %3, i32 noundef %4, ptr noundef %5, i64 noundef %6) local_unnamed_addr #0 {
  %8 = load ptr, ptr %0, align 8, !tbaa !3
  %9 = getelementptr inbounds nuw i8, ptr %8, i64 112
  %10 = load ptr, ptr %9, align 8, !tbaa !37
  %.not.i = icmp eq ptr %10, null
  br i1 %.not.i, label %evp_rand_lock.exit.thread, label %evp_rand_lock.exit

evp_rand_lock.exit:                               ; preds = %7
  %11 = getelementptr inbounds nuw i8, ptr %0, i64 8
  %12 = load ptr, ptr %11, align 8, !tbaa !17
  %13 = tail call i32 %10(ptr noundef %12) #8
  %.not = icmp eq i32 %13, 0
  br i1 %.not, label %evp_rand_unlock.exit, label %evp_rand_lock.exit.thread

evp_rand_lock.exit.thread:                        ; preds = %7, %evp_rand_lock.exit
  %14 = tail call fastcc i32 @evp_rand_generate_locked(ptr noundef nonnull %0, ptr noundef %1, i64 noundef %2, i32 noundef %3, i32 noundef %4, ptr noundef %5, i64 noundef %6)
  %15 = load ptr, ptr %0, align 8, !tbaa !3
  %16 = getelementptr inbounds nuw i8, ptr %15, i64 120
  %17 = load ptr, ptr %16, align 8, !tbaa !38
  %.not.i10 = icmp eq ptr %17, null
  br i1 %.not.i10, label %evp_rand_unlock.exit, label %18

18:                                               ; preds = %evp_rand_lock.exit.thread
  %19 = getelementptr inbounds nuw i8, ptr %0, i64 8
  %20 = load ptr, ptr %19, align 8, !tbaa !17
  tail call void %17(ptr noundef %20) #8
  br label %evp_rand_unlock.exit

evp_rand_unlock.exit:                             ; preds = %18, %evp_rand_lock.exit.thread, %evp_rand_lock.exit
  %.0 = phi i32 [ 0, %evp_rand_lock.exit ], [ %14, %evp_rand_lock.exit.thread ], [ %14, %18 ]
  ret i32 %.0
}